(dp0
(S'0000000100'
p1
I2
tp2
F13.180174218469901
s(S'0000010000'
p3
I1
tp4
F-0.34910048701784824
s(S'0000000010'
p5
I1
tp6
F12.522756211052517
s(S'1000000000'
p7
I0
tp8
F14.708046666176443
s(S'1000000000'
p9
I2
tp10
F-1.6630987938155959
s(S'0000001000'
p11
I0
tp12
F22.863757841060128
s(S'0001000000'
p13
I2
tp14
F-2.1943415077627275
s(S'0100000000'
p15
I0
tp16
F17.77753912243599
s(S'0000100000'
p17
I0
tp18
F13.024792232072645
s(S'0100000000'
p19
I1
tp20
F-0.8456119945150888
s(S'0000000000'
p21
I1
tp22
F-83.18610104994055
s(S'0001000000'
p23
I0
tp24
F12.400776842682596
s(S'0000000000'
p25
I0
tp26
F-72.59681866215479
s(S'0010000000'
p27
I0
tp28
F16.977972606717056
s(S'0001000000'
p29
I1
tp30
F-2.8582784358362936
s(S'0000000001'
p31
I2
tp32
F11.81307346178679
s(S'0000010000'
p33
I2
tp34
F13.421685231767174
s(S'0000000000'
p35
I2
tp36
F-73.25378729112677
s.